; Function Attrs: mustprogress uwtable
define hidden noundef zeroext i1 @_ZN6spacer10is_literalER11ast_managerP4expr(ptr noundef nonnull align 8 dereferenceable(976) %m, ptr noundef %n) local_unnamed_addr #3 {
entry:
  %call = tail call noundef zeroext i1 @_ZN6spacer7is_atomER11ast_managerP4expr(ptr noundef nonnull align 8 dereferenceable(976) %m, ptr noundef %n)
  br i1 %call, label %lor.end, label %lor.rhs

lor.rhs:                                          ; preds = %entry
  %m_kind.i.i.i = getelementptr inbounds i8, ptr %n, i64 4
  %bf.load.i.i.i = load i32, ptr %m_kind.i.i.i, align 4
  %bf.clear.i.i.i = and i32 %bf.load.i.i.i, 65535
  %cmp.i.i = icmp eq i32 %bf.clear.i.i.i, 0
  br i1 %cmp.i.i, label %land.rhs.i.i, label %lor.end

land.rhs.i.i:                                     ; preds = %lor.rhs
  %m_decl.i.i.i = getelementptr inbounds i8, ptr %n, i64 16
  %0 = load ptr, ptr %m_decl.i.i.i, align 8
  %m_info.i.i.i.i = getelementptr inbounds i8, ptr %0, i64 24
  %1 = load ptr, ptr %m_info.i.i.i.i, align 8
  %tobool.not.i.i.i.i = icmp eq ptr %1, null
  br i1 %tobool.not.i.i.i.i, label %lor.end, label %_ZNK11ast_manager6is_notEPK4expr.exit

_ZNK11ast_manager6is_notEPK4expr.exit:            ; preds = %land.rhs.i.i
  %2 = load i32, ptr %1, align 8
  %cmp.i.i.i.i.i = icmp eq i32 %2, 0
  %m_kind.i.i.i.i.i = getelementptr inbounds i8, ptr %1, i64 4
  %3 = load i32, ptr %m_kind.i.i.i.i.i, align 4
  %cmp2.i.i.i.i.i = icmp eq i32 %3, 8
  %4 = select i1 %cmp.i.i.i.i.i, i1 %cmp2.i.i.i.i.i, i1 false
  br i1 %4, label %land.rhs, label %lor.end

land.rhs:                                         ; preds = %_ZNK11ast_manager6is_notEPK4expr.exit
  %m_args.i = getelementptr inbounds i8, ptr %n, i64 32
  %5 = load ptr, ptr %m_args.i, align 8
  %call4 = tail call noundef zeroext i1 @_ZN6spacer7is_atomER11ast_managerP4expr(ptr noundef nonnull align 8 dereferenceable(976) %m, ptr noundef %5)
  br label %lor.end

lor.end:                                          ; preds = %land.rhs.i.i, %lor.rhs, %_ZNK11ast_manager6is_notEPK4expr.exit, %land.rhs, %entry
  %6 = phi i1 [ true, %entry ], [ false, %_ZNK11ast_manager6is_notEPK4expr.exit ], [ %call4, %land.rhs ], [ false, %lor.rhs ], [ false, %land.rhs.i.i ]
  ret i1 %6
}